target datalayout = "e-m:e-p270:32:32-p271:32:32-p272:64:64-i64:64-i128:128-f80:128-n8:16:32:64-S128"
target triple = "x86_64-pc-linux-gnu"

%struct._value_string_ext = type { ptr, i32, i32, ptr, ptr }
%struct._dcerpc_info = type { ptr, i32, i64, i8, i8, i8, i32, i32, i32, i32, i32, i32, i32, i32, ptr, ptr, ptr, ptr, %struct.anon }
%struct.anon = type { i8, ptr, ptr, ptr, i8 }
%struct.nstime_t = type { i64, i32 }
%struct._packet_info = type { ptr, ptr, i32, i32, %struct.nstime_t, %struct.nstime_t, %struct.nstime_t, i8, ptr, ptr, ptr, ptr, %struct._address, %struct._address, %struct._address, %struct._address, %struct._address, %struct._address, i32, ptr, i8, [3 x i8], %struct.anon.0, i32, i32, i32, i32, ptr, i8, ptr, ptr, i16, i16, i32, i32, i16, i32, i32, ptr, ptr, ptr, i8, i8, i16, i16, i16, i32, i16, i16, ptr, ptr, ptr, ptr, ptr, i32, i32 }
%struct._address = type { i32, i32, ptr, ptr }
%struct.anon.0 = type { i8, [3 x i8] }

@hf_iremotewinspool_werror = internal global i32 0, align 4
@WERR_errors_ext = external global %struct._value_string_ext, align 8
@hf_iremotewinspool_winspool_AsyncEnumPrinterData_pData = internal global i32 0, align 4
@hf_iremotewinspool_winspool_AsyncEnumPrinterData_pType = internal global i32 0, align 4
@hf_iremotewinspool_winspool_AsyncEnumPrinterData_pValueName = internal global i32 0, align 4
@hf_iremotewinspool_winspool_AsyncEnumPrinterData_pcbData = internal global i32 0, align 4
@hf_iremotewinspool_winspool_AsyncEnumPrinterData_pcbValueName = internal global i32 0, align 4
@.str.550 = private unnamed_addr constant [30 x i8] c"winspool_AsyncEnumPrinterData\00", align 1
@.str.603 = private unnamed_addr constant [12 x i8] c", Error: %s\00", align 1
@.str.604 = private unnamed_addr constant [25 x i8] c"Unknown DOS error 0x%08x\00", align 1
@.str.619 = private unnamed_addr constant [31 x i8] c"Pointer to PValueName (uint16)\00", align 1
@.str.620 = private unnamed_addr constant [26 x i8] c"Pointer to PType (uint32)\00", align 1
@.str.621 = private unnamed_addr constant [25 x i8] c"Pointer to PData (uint8)\00", align 1
@.str.631 = private unnamed_addr constant [33 x i8] c"Pointer to PcbValueName (uint32)\00", align 1
@.str.632 = private unnamed_addr constant [28 x i8] c"Pointer to PcbData (uint32)\00", align 1

; Function Attrs: null_pointer_is_valid sspstrong uwtable
define internal i32 @iremotewinspool_dissect_element_winspool_AsyncEnumPrinterData_pcbData(ptr noundef %0, i32 noundef %1, ptr noundef %2, ptr noundef %3, ptr noundef %4, ptr noundef %5) #0 {
  %7 = alloca ptr, align 8
  %8 = alloca i32, align 4
  %9 = alloca ptr, align 8
  %10 = alloca ptr, align 8
  %11 = alloca ptr, align 8
  %12 = alloca ptr, align 8
  store ptr %0, ptr %7, align 8
  store i32 %1, ptr %8, align 4
  store ptr %2, ptr %9, align 8
  store ptr %3, ptr %10, align 8
  store ptr %4, ptr %11, align 8
  store ptr %5, ptr %12, align 8
  %13 = load ptr, ptr %7, align 8
  %14 = load i32, ptr %8, align 4
  %15 = load ptr, ptr %9, align 8
  %16 = load ptr, ptr %10, align 8
  %17 = load ptr, ptr %11, align 8
  %18 = load ptr, ptr %12, align 8
  %19 = load i32, ptr @hf_iremotewinspool_winspool_AsyncEnumPrinterData_pcbData, align 4
  %20 = call i32 @dissect_ndr_toplevel_pointer(ptr noundef %13, i32 noundef %14, ptr noundef %15, ptr noundef %16, ptr noundef %17, ptr noundef %18, ptr noundef @iremotewinspool_dissect_element_winspool_AsyncEnumPrinterData_pcbData_, i32 noundef 1, ptr noundef @.str.632, i32 noundef %19)
  store i32 %20, ptr %8, align 4
  %21 = load i32, ptr %8, align 4
  ret i32 %21
}

; Function Attrs: null_pointer_is_valid sspstrong uwtable
define internal i32 @iremotewinspool_dissect_element_winspool_AsyncEnumPrinterData_pData(ptr noundef %0, i32 noundef %1, ptr noundef %2, ptr noundef %3, ptr noundef %4, ptr noundef %5) #0 {
  %7 = alloca ptr, align 8
  %8 = alloca i32, align 4
  %9 = alloca ptr, align 8
  %10 = alloca ptr, align 8
  %11 = alloca ptr, align 8
  %12 = alloca ptr, align 8
  store ptr %0, ptr %7, align 8
  store i32 %1, ptr %8, align 4
  store ptr %2, ptr %9, align 8
  store ptr %3, ptr %10, align 8
  store ptr %4, ptr %11, align 8
  store ptr %5, ptr %12, align 8
  %13 = load ptr, ptr %7, align 8
  %14 = load i32, ptr %8, align 4
  %15 = load ptr, ptr %9, align 8
  %16 = load ptr, ptr %10, align 8
  %17 = load ptr, ptr %11, align 8
  %18 = load ptr, ptr %12, align 8
  %19 = load i32, ptr @hf_iremotewinspool_winspool_AsyncEnumPrinterData_pData, align 4
  %20 = call i32 @dissect_ndr_toplevel_pointer(ptr noundef %13, i32 noundef %14, ptr noundef %15, ptr noundef %16, ptr noundef %17, ptr noundef %18, ptr noundef @iremotewinspool_dissect_element_winspool_AsyncEnumPrinterData_pData_, i32 noundef 1, ptr noundef @.str.621, i32 noundef %19)
  store i32 %20, ptr %8, align 4
  %21 = load i32, ptr %8, align 4
  ret i32 %21
}

; Function Attrs: null_pointer_is_valid sspstrong uwtable
define internal i32 @iremotewinspool_dissect_element_winspool_AsyncEnumPrinterData_pType(ptr noundef %0, i32 noundef %1, ptr noundef %2, ptr noundef %3, ptr noundef %4, ptr noundef %5) #0 {
  %7 = alloca ptr, align 8
  %8 = alloca i32, align 4
  %9 = alloca ptr, align 8
  %10 = alloca ptr, align 8
  %11 = alloca ptr, align 8
  %12 = alloca ptr, align 8
  store ptr %0, ptr %7, align 8
  store i32 %1, ptr %8, align 4
  store ptr %2, ptr %9, align 8
  store ptr %3, ptr %10, align 8
  store ptr %4, ptr %11, align 8
  store ptr %5, ptr %12, align 8
  %13 = load ptr, ptr %7, align 8
  %14 = load i32, ptr %8, align 4
  %15 = load ptr, ptr %9, align 8
  %16 = load ptr, ptr %10, align 8
  %17 = load ptr, ptr %11, align 8
  %18 = load ptr, ptr %12, align 8
  %19 = load i32, ptr @hf_iremotewinspool_winspool_AsyncEnumPrinterData_pType, align 4
  %20 = call i32 @dissect_ndr_toplevel_pointer(ptr noundef %13, i32 noundef %14, ptr noundef %15, ptr noundef %16, ptr noundef %17, ptr noundef %18, ptr noundef @iremotewinspool_dissect_element_winspool_AsyncEnumPrinterData_pType_, i32 noundef 1, ptr noundef @.str.620, i32 noundef %19)
  store i32 %20, ptr %8, align 4
  %21 = load i32, ptr %8, align 4
  ret i32 %21
}

; Function Attrs: null_pointer_is_valid sspstrong uwtable
define internal i32 @iremotewinspool_dissect_element_winspool_AsyncEnumPrinterData_pcbValueName(ptr noundef %0, i32 noundef %1, ptr noundef %2, ptr noundef %3, ptr noundef %4, ptr noundef %5) #0 {
  %7 = alloca ptr, align 8
  %8 = alloca i32, align 4
  %9 = alloca ptr, align 8
  %10 = alloca ptr, align 8
  %11 = alloca ptr, align 8
  %12 = alloca ptr, align 8
  store ptr %0, ptr %7, align 8
  store i32 %1, ptr %8, align 4
  store ptr %2, ptr %9, align 8
  store ptr %3, ptr %10, align 8
  store ptr %4, ptr %11, align 8
  store ptr %5, ptr %12, align 8
  %13 = load ptr, ptr %7, align 8
  %14 = load i32, ptr %8, align 4
  %15 = load ptr, ptr %9, align 8
  %16 = load ptr, ptr %10, align 8
  %17 = load ptr, ptr %11, align 8
  %18 = load ptr, ptr %12, align 8
  %19 = load i32, ptr @hf_iremotewinspool_winspool_AsyncEnumPrinterData_pcbValueName, align 4
  %20 = call i32 @dissect_ndr_toplevel_pointer(ptr noundef %13, i32 noundef %14, ptr noundef %15, ptr noundef %16, ptr noundef %17, ptr noundef %18, ptr noundef @iremotewinspool_dissect_element_winspool_AsyncEnumPrinterData_pcbValueName_, i32 noundef 1, ptr noundef @.str.631, i32 noundef %19)
  store i32 %20, ptr %8, align 4
  %21 = load i32, ptr %8, align 4
  ret i32 %21
}

; Function Attrs: null_pointer_is_valid sspstrong uwtable
define internal i32 @iremotewinspool_dissect_element_winspool_AsyncEnumPrinterData_pValueName(ptr noundef %0, i32 noundef %1, ptr noundef %2, ptr noundef %3, ptr noundef %4, ptr noundef %5) #0 {
  %7 = alloca ptr, align 8
  %8 = alloca i32, align 4
  %9 = alloca ptr, align 8
  %10 = alloca ptr, align 8
  %11 = alloca ptr, align 8
  %12 = alloca ptr, align 8
  store ptr %0, ptr %7, align 8
  store i32 %1, ptr %8, align 4
  store ptr %2, ptr %9, align 8
  store ptr %3, ptr %10, align 8
  store ptr %4, ptr %11, align 8
  store ptr %5, ptr %12, align 8
  %13 = load ptr, ptr %7, align 8
  %14 = load i32, ptr %8, align 4
  %15 = load ptr, ptr %9, align 8
  %16 = load ptr, ptr %10, align 8
  %17 = load ptr, ptr %11, align 8
  %18 = load ptr, ptr %12, align 8
  %19 = load i32, ptr @hf_iremotewinspool_winspool_AsyncEnumPrinterData_pValueName, align 4
  %20 = call i32 @dissect_ndr_toplevel_pointer(ptr noundef %13, i32 noundef %14, ptr noundef %15, ptr noundef %16, ptr noundef %17, ptr noundef %18, ptr noundef @iremotewinspool_dissect_element_winspool_AsyncEnumPrinterData_pValueName_, i32 noundef 1, ptr noundef @.str.619, i32 noundef %19)
  store i32 %20, ptr %8, align 4
  %21 = load i32, ptr %8, align 4
  ret i32 %21
}

; Function Attrs: null_pointer_is_valid sspstrong uwtable
define internal i32 @iremotewinspool_dissect_winspool_AsyncEnumPrinterData_response(ptr noundef %0, i32 noundef %1, ptr noundef %2, ptr noundef %3, ptr noundef %4, ptr noundef %5) #0 {
  %7 = alloca ptr, align 8
  %8 = alloca i32, align 4
  %9 = alloca ptr, align 8
  %10 = alloca ptr, align 8
  %11 = alloca ptr, align 8
  %12 = alloca ptr, align 8
  %13 = alloca i32, align 4
  store ptr %0, ptr %7, align 8
  store i32 %1, ptr %8, align 4
  store ptr %2, ptr %9, align 8
  store ptr %3, ptr %10, align 8
  store ptr %4, ptr %11, align 8
  store ptr %5, ptr %12, align 8
  call void @llvm.lifetime.start.p0(i64 4, ptr %13) #3
  %14 = load ptr, ptr %11, align 8
  %15 = getelementptr inbounds nuw %struct._dcerpc_info, ptr %14, i32 0, i32 15
  store ptr @.str.550, ptr %15, align 8
  %16 = load ptr, ptr %7, align 8
  %17 = load i32, ptr %8, align 4
  %18 = load ptr, ptr %9, align 8
  %19 = load ptr, ptr %10, align 8
  %20 = load ptr, ptr %11, align 8
  %21 = load ptr, ptr %12, align 8
  %22 = call i32 @iremotewinspool_dissect_element_winspool_AsyncEnumPrinterData_pValueName(ptr noundef %16, i32 noundef %17, ptr noundef %18, ptr noundef %19, ptr noundef %20, ptr noundef %21)
  store i32 %22, ptr %8, align 4
  %23 = load ptr, ptr %9, align 8
  %24 = load ptr, ptr %7, align 8
  %25 = load i32, ptr %8, align 4
  %26 = load ptr, ptr %11, align 8
  %27 = load ptr, ptr %12, align 8
  %28 = call i32 @dissect_deferred_pointers(ptr noundef %23, ptr noundef %24, i32 noundef %25, ptr noundef %26, ptr noundef %27)
  store i32 %28, ptr %8, align 4
  %29 = load ptr, ptr %7, align 8
  %30 = load i32, ptr %8, align 4
  %31 = load ptr, ptr %9, align 8
  %32 = load ptr, ptr %10, align 8
  %33 = load ptr, ptr %11, align 8
  %34 = load ptr, ptr %12, align 8
  %35 = call i32 @iremotewinspool_dissect_element_winspool_AsyncEnumPrinterData_pcbValueName(ptr noundef %29, i32 noundef %30, ptr noundef %31, ptr noundef %32, ptr noundef %33, ptr noundef %34)
  store i32 %35, ptr %8, align 4
  %36 = load ptr, ptr %9, align 8
  %37 = load ptr, ptr %7, align 8
  %38 = load i32, ptr %8, align 4
  %39 = load ptr, ptr %11, align 8
  %40 = load ptr, ptr %12, align 8
  %41 = call i32 @dissect_deferred_pointers(ptr noundef %36, ptr noundef %37, i32 noundef %38, ptr noundef %39, ptr noundef %40)
  store i32 %41, ptr %8, align 4
  %42 = load ptr, ptr %7, align 8
  %43 = load i32, ptr %8, align 4
  %44 = load ptr, ptr %9, align 8
  %45 = load ptr, ptr %10, align 8
  %46 = load ptr, ptr %11, align 8
  %47 = load ptr, ptr %12, align 8
  %48 = call i32 @iremotewinspool_dissect_element_winspool_AsyncEnumPrinterData_pType(ptr noundef %42, i32 noundef %43, ptr noundef %44, ptr noundef %45, ptr noundef %46, ptr noundef %47)
  store i32 %48, ptr %8, align 4
  %49 = load ptr, ptr %9, align 8
  %50 = load ptr, ptr %7, align 8
  %51 = load i32, ptr %8, align 4
  %52 = load ptr, ptr %11, align 8
  %53 = load ptr, ptr %12, align 8
  %54 = call i32 @dissect_deferred_pointers(ptr noundef %49, ptr noundef %50, i32 noundef %51, ptr noundef %52, ptr noundef %53)
  store i32 %54, ptr %8, align 4
  %55 = load ptr, ptr %7, align 8
  %56 = load i32, ptr %8, align 4
  %57 = load ptr, ptr %9, align 8
  %58 = load ptr, ptr %10, align 8
  %59 = load ptr, ptr %11, align 8
  %60 = load ptr, ptr %12, align 8
  %61 = call i32 @iremotewinspool_dissect_element_winspool_AsyncEnumPrinterData_pData(ptr noundef %55, i32 noundef %56, ptr noundef %57, ptr noundef %58, ptr noundef %59, ptr noundef %60)
  store i32 %61, ptr %8, align 4
  %62 = load ptr, ptr %9, align 8
  %63 = load ptr, ptr %7, align 8
  %64 = load i32, ptr %8, align 4
  %65 = load ptr, ptr %11, align 8
  %66 = load ptr, ptr %12, align 8
  %67 = call i32 @dissect_deferred_pointers(ptr noundef %62, ptr noundef %63, i32 noundef %64, ptr noundef %65, ptr noundef %66)
  store i32 %67, ptr %8, align 4
  %68 = load ptr, ptr %7, align 8
  %69 = load i32, ptr %8, align 4
  %70 = load ptr, ptr %9, align 8
  %71 = load ptr, ptr %10, align 8
  %72 = load ptr, ptr %11, align 8
  %73 = load ptr, ptr %12, align 8
  %74 = call i32 @iremotewinspool_dissect_element_winspool_AsyncEnumPrinterData_pcbData(ptr noundef %68, i32 noundef %69, ptr noundef %70, ptr noundef %71, ptr noundef %72, ptr noundef %73)
  store i32 %74, ptr %8, align 4
  %75 = load ptr, ptr %9, align 8
  %76 = load ptr, ptr %7, align 8
  %77 = load i32, ptr %8, align 4
  %78 = load ptr, ptr %11, align 8
  %79 = load ptr, ptr %12, align 8
  %80 = call i32 @dissect_deferred_pointers(ptr noundef %75, ptr noundef %76, i32 noundef %77, ptr noundef %78, ptr noundef %79)
  store i32 %80, ptr %8, align 4
  %81 = load ptr, ptr %7, align 8
  %82 = load i32, ptr %8, align 4
  %83 = load ptr, ptr %9, align 8
  %84 = load ptr, ptr %10, align 8
  %85 = load ptr, ptr %11, align 8
  %86 = load ptr, ptr %12, align 8
  %87 = load i32, ptr @hf_iremotewinspool_werror, align 4
  %88 = call i32 @dissect_ndr_uint32(ptr noundef %81, i32 noundef %82, ptr noundef %83, ptr noundef %84, ptr noundef %85, ptr noundef %86, i32 noundef %87, ptr noundef %13)
  store i32 %88, ptr %8, align 4
  %89 = load i32, ptr %13, align 4
  %90 = icmp ne i32 %89, 0
  br i1 %90, label %91, label %97

91:                                               ; preds = %6
  %92 = load ptr, ptr %9, align 8
  %93 = getelementptr inbounds nuw %struct._packet_info, ptr %92, i32 0, i32 1
  %94 = load ptr, ptr %93, align 8
  %95 = load i32, ptr %13, align 4
  %96 = call ptr @val_to_str_ext(i32 noundef %95, ptr noundef @WERR_errors_ext, ptr noundef @.str.604)
  call void (ptr, i32, ptr, ...) @col_append_fstr(ptr noundef %94, i32 noundef 25, ptr noundef @.str.603, ptr noundef %96)
  br label %97

97:                                               ; preds = %91, %6
  %98 = load i32, ptr %8, align 4
  call void @llvm.lifetime.end.p0(i64 4, ptr %13) #3
  ret i32 %98
}